target datalayout = "e-m:e-p270:32:32-p271:32:32-p272:64:64-i64:64-i128:128-f80:128-n8:16:32:64-S128"
target triple = "x86_64-pc-linux-gnu"

%"class.std::__cxx11::basic_string" = type { %"struct.std::__cxx11::basic_string<char>::_Alloc_hider", i64, %union.anon }
%"struct.std::__cxx11::basic_string<char>::_Alloc_hider" = type { ptr }
%union.anon = type { i64, [8 x i8] }
%"class.llvm::LLLexer" = type <{ ptr, %"class.llvm::StringRef", ptr, ptr, ptr, ptr, i32, [4 x i8], %"class.std::__cxx11::basic_string", i32, [4 x i8], ptr, %"class.llvm::APFloat", %"class.llvm::APSInt", i8, [7 x i8] }>
%"class.llvm::StringRef" = type { ptr, i64 }
%"class.llvm::APFloat" = type { [8 x i8], %"union.llvm::APFloat::Storage" }
%"union.llvm::APFloat::Storage" = type { %"class.llvm::detail::DoubleAPFloat", [8 x i8] }
%"class.llvm::detail::DoubleAPFloat" = type { ptr, %"class.std::unique_ptr" }
%"class.std::unique_ptr" = type { %"struct.std::__uniq_ptr_data" }
%"struct.std::__uniq_ptr_data" = type { %"class.std::__uniq_ptr_impl" }
%"class.std::__uniq_ptr_impl" = type { %"class.std::tuple" }
%"class.std::tuple" = type { %"struct.std::_Tuple_impl" }
%"struct.std::_Tuple_impl" = type { %"struct.std::_Head_base.4" }
%"struct.std::_Head_base.4" = type { ptr }
%"class.llvm::APSInt" = type { %"class.llvm::APInt.base", i8, [3 x i8] }
%"class.llvm::APInt.base" = type <{ %union.anon.5, i32 }>
%union.anon.5 = type { i64 }

; Function Attrs: mustprogress nounwind uwtable
define linkonce_odr hidden noundef ptr @_ZNK4llvm9StringRef3endEv(ptr noundef nonnull align 8 dereferenceable(16) %0) #0 comdat align 2 {
  %2 = alloca ptr, align 8
  store ptr %0, ptr %2, align 8
  %3 = load ptr, ptr %2, align 8
  %4 = getelementptr inbounds nuw %"class.llvm::StringRef", ptr %3, i32 0, i32 0
  %5 = load ptr, ptr %4, align 8
  %6 = getelementptr inbounds nuw %"class.llvm::StringRef", ptr %3, i32 0, i32 1
  %7 = load i64, ptr %6, align 8
  %8 = getelementptr inbounds i8, ptr %5, i64 %7
  ret ptr %8
}

; Function Attrs: mustprogress nounwind uwtable
define dso_local noundef i32 @_ZN4llvm7LLLexer11getNextCharEv(ptr noundef nonnull align 8 dereferenceable(161) %0) #0 align 2 {
  %2 = alloca i32, align 4
  %3 = alloca ptr, align 8
  %4 = alloca i8, align 1
  store ptr %0, ptr %3, align 8
  %5 = load ptr, ptr %3, align 8
  %6 = getelementptr inbounds nuw %"class.llvm::LLLexer", ptr %5, i32 0, i32 0
  %7 = load ptr, ptr %6, align 8
  %8 = getelementptr inbounds i8, ptr %7, i32 1
  store ptr %8, ptr %6, align 8
  %9 = load i8, ptr %7, align 1
  store i8 %9, ptr %4, align 1
  %10 = load i8, ptr %4, align 1
  %11 = sext i8 %10 to i32
  switch i32 %11, label %12 [
    i32 0, label %15
  ]

12:                                               ; preds = %1
  %13 = load i8, ptr %4, align 1
  %14 = zext i8 %13 to i32
  store i32 %14, ptr %2, align 4
  br label %27

15:                                               ; preds = %1
  %16 = getelementptr inbounds nuw %"class.llvm::LLLexer", ptr %5, i32 0, i32 0
  %17 = load ptr, ptr %16, align 8
  %18 = getelementptr inbounds i8, ptr %17, i64 -1
  %19 = getelementptr inbounds nuw %"class.llvm::LLLexer", ptr %5, i32 0, i32 1
  %20 = call noundef ptr @_ZNK4llvm9StringRef3endEv(ptr noundef nonnull align 8 dereferenceable(16) %19)
  %21 = icmp ne ptr %18, %20
  br i1 %21, label %22, label %23

22:                                               ; preds = %15
  store i32 0, ptr %2, align 4
  br label %27

23:                                               ; preds = %15
  %24 = getelementptr inbounds nuw %"class.llvm::LLLexer", ptr %5, i32 0, i32 0
  %25 = load ptr, ptr %24, align 8
  %26 = getelementptr inbounds i8, ptr %25, i32 -1
  store ptr %26, ptr %24, align 8
  store i32 -1, ptr %2, align 4
  br label %27

27:                                               ; preds = %23, %22, %12
  %28 = load i32, ptr %2, align 4
  ret i32 %28
}

; Function Attrs: mustprogress nounwind uwtable
define dso_local void @_ZN4llvm7LLLexer15SkipLineCommentEv(ptr noundef nonnull align 8 dereferenceable(161) %0) #0 align 2 {
  %2 = alloca ptr, align 8
  store ptr %0, ptr %2, align 8
  %3 = load ptr, ptr %2, align 8
  br label %4

4:                                                ; preds = %22, %1
  %5 = getelementptr inbounds nuw %"class.llvm::LLLexer", ptr %3, i32 0, i32 0
  %6 = load ptr, ptr %5, align 8
  %7 = getelementptr inbounds i8, ptr %6, i64 0
  %8 = load i8, ptr %7, align 1
  %9 = sext i8 %8 to i32
  %10 = icmp eq i32 %9, 10
  br i1 %10, label %21, label %11

11:                                               ; preds = %4
  %12 = getelementptr inbounds nuw %"class.llvm::LLLexer", ptr %3, i32 0, i32 0
  %13 = load ptr, ptr %12, align 8
  %14 = getelementptr inbounds i8, ptr %13, i64 0
  %15 = load i8, ptr %14, align 1
  %16 = sext i8 %15 to i32
  %17 = icmp eq i32 %16, 13
  br i1 %17, label %21, label %18

18:                                               ; preds = %11
  %19 = call noundef i32 @_ZN4llvm7LLLexer11getNextCharEv(ptr noundef nonnull align 8 dereferenceable(161) %3)
  %20 = icmp eq i32 %19, -1
  br i1 %20, label %21, label %22

21:                                               ; preds = %18, %11, %4
  ret void

22:                                               ; preds = %18
  br label %4, !llvm.loop !18
}