; Function Attrs: mustprogress nofree norecurse nosync nounwind memory(read, argmem: readwrite, inaccessiblemem: none) uwtable
define dso_local void @_ZN4llvm7LLLexer15SkipLineCommentEv(ptr nocapture noundef nonnull align 8 dereferenceable(161) %0) local_unnamed_addr #7 align 2 {
  %.promoted = load ptr, ptr %0, align 8
  %2 = getelementptr inbounds nuw i8, ptr %0, i64 8
  %3 = load ptr, ptr %2, align 8
  %4 = getelementptr inbounds i8, ptr %0, i64 16
  %5 = load i64, ptr %4, align 8
  %6 = getelementptr inbounds i8, ptr %3, i64 %5
  br label %_ZN4llvm7LLLexer11getNextCharEv.exit

_ZN4llvm7LLLexer11getNextCharEv.exit:             ; preds = %9, %1
  %7 = phi ptr [ %.promoted, %1 ], [ %10, %9 ]
  %8 = load i8, ptr %7, align 1
  switch i8 %8, label %9 [
    i8 10, label %.loopexit
    i8 13, label %.loopexit
  ]

9:                                                ; preds = %_ZN4llvm7LLLexer11getNextCharEv.exit
  %10 = getelementptr inbounds i8, ptr %7, i64 1
  store ptr %10, ptr %0, align 8
  %11 = load i8, ptr %7, align 1
  %cond.i = icmp eq i8 %11, 0
  %.not.i = icmp eq ptr %7, %6
  %or.cond = select i1 %cond.i, i1 %.not.i, i1 false
  br i1 %or.cond, label %_ZN4llvm7LLLexer11getNextCharEv.exit.thread, label %_ZN4llvm7LLLexer11getNextCharEv.exit, !llvm.loop !14

_ZN4llvm7LLLexer11getNextCharEv.exit.thread:      ; preds = %9
  store ptr %7, ptr %0, align 8
  br label %.loopexit

.loopexit:                                        ; preds = %_ZN4llvm7LLLexer11getNextCharEv.exit, %_ZN4llvm7LLLexer11getNextCharEv.exit, %_ZN4llvm7LLLexer11getNextCharEv.exit.thread
  ret void
}